(ccopy_reg
_reconstructor
p0
(cpandas.core.frame
DataFrame
p1
c__builtin__
object
p2
Ntp3
Rp4
(dp5
S'_metadata'
p6
(lp7
sS'_typ'
p8
S'dataframe'
p9
sS'_data'
p10
g0
(cpandas.core.internals
BlockManager
p11
g2
Ntp12
Rp13
((lp14
cpandas.core.indexes.base
_new_Index
p15
(cpandas.core.indexes.base
Index
p16
(dp17
S'data'
p18
cnumpy.core.multiarray
_reconstruct
p19
(cnumpy
ndarray
p20
(I0
tp21
S'b'
p22
tp23
Rp24
(I1
(L4L
tp25
cnumpy
dtype
p26
(S'O8'
p27
I0
I1
tp28
Rp29
(I3
S'|'
p30
NNNI-1
I-1
I63
tp31
bI00
(lp32
S'FP'
p33
aS'FN'
p34
aS'TP'
p35
aS'TN'
p36
atp37
bsS'name'
p38
Nstp39
Rp40
ag15
(g16
(dp41
g18
g19
(g20
(I0
tp42
g22
tp43
Rp44
(I1
(L14L
tp45
g29
I00
(lp46
S'SL_l1s_n'
p47
aS'SL_l2s_n'
p48
aS'SL_l2h_n'
p49
aS'SX_po2_n'
p50
aS'SX_po3_n'
p51
aS'SX_rbf_n'
p52
aS'SX_sig_n'
p53
aS'LR_l1s_n'
p54
aS'LR_l1l_n'
p55
aS'LR_l2s_n'
p56
aS'LR_l2l_n'
p57
aS'LR_nwt_n'
p58
aS'LR_lbf_n'
p59
aS'LR_sag_n'
p60
atp61
bsg38
Nstp62
Rp63
a(lp64
g19
(g20
(I0
tp65
g22
tp66
Rp67
(I1
(L4L
L14L
tp68
g29
I00
(lp69
L20L
aL20L
aL18L
aL38L
aL36L
aL25L
aL25L
aL20L
aL20L
aL20L
aL20L
aL20L
aL20L
aL20L
aL64L
aL63L
aL64L
aL62L
aL33L
aL52L
aL53L
aL61L
aL61L
aL61L
aL61L
aL61L
aL61L
aL61L
aL104L
aL105L
aL104L
aL106L
aL135L
aL116L
aL115L
aL107L
aL107L
aL107L
aL107L
aL107L
aL107L
aL107L
aL62L
aL62L
aL64L
aL44L
aL46L
aL57L
aL57L
aL62L
aL62L
aL62L
aL62L
aL62L
aL62L
aL62L
atp70
ba(lp71
g15
(g16
(dp72
g18
g19
(g20
(I0
tp73
g22
tp74
Rp75
(I1
(L4L
tp76
g29
I00
(lp77
g33
ag34
ag35
ag36
atp78
bsg38
Nstp79
Rp80
a(dp81
S'0.14.1'
p82
(dp83
S'axes'
p84
g14
sS'blocks'
p85
(lp86
(dp87
S'mgr_locs'
p88
c__builtin__
slice
p89
(I0
I4
L1L
tp90
Rp91
sS'values'
p92
g67
sasstp93
bsbg0
(g1
g2
Ntp94
Rp95
(dp96
g6
g7
sg8
g9
sg10
g0
(g11
g2
Ntp97
Rp98
((lp99
g15
(g16
(dp100
g18
g19
(g20
(I0
tp101
g22
tp102
Rp103
(I1
(L4L
tp104
g29
I00
(lp105
g33
ag34
ag35
ag36
atp106
bsg38
Nstp107
Rp108
ag15
(g16
(dp109
g18
g19
(g20
(I0
tp110
g22
tp111
Rp112
(I1
(L14L
tp113
g29
I00
(lp114
g47
ag48
ag49
ag50
ag51
ag52
ag53
ag54
ag55
ag56
ag57
ag58
ag59
ag60
atp115
bsg38
Nstp116
Rp117
a(lp118
g19
(g20
(I0
tp119
g22
tp120
Rp121
(I1
(L4L
L14L
tp122
g29
I00
(lp123
L22L
aL20L
aL20L
aL42L
aL43L
aL40L
aL43L
aL22L
aL22L
aL20L
aL20L
aL20L
aL20L
aL20L
aL64L
aL58L
aL64L
aL44L
aL40L
aL39L
aL17L
aL65L
aL66L
aL58L
aL58L
aL58L
aL58L
aL58L
aL104L
aL110L
aL104L
aL124L
aL128L
aL129L
aL151L
aL103L
aL102L
aL110L
aL110L
aL110L
aL110L
aL110L
aL60L
aL62L
aL62L
aL40L
aL39L
aL42L
aL39L
aL60L
aL60L
aL62L
aL62L
aL62L
aL62L
aL62L
atp124
ba(lp125
g15
(g16
(dp126
g18
g19
(g20
(I0
tp127
g22
tp128
Rp129
(I1
(L4L
tp130
g29
I00
(lp131
g33
ag34
ag35
ag36
atp132
bsg38
Nstp133
Rp134
a(dp135
g82
(dp136
g84
g99
sg85
(lp137
(dp138
g88
g89
(I0
I4
L1L
tp139
Rp140
sg92
g121
sasstp141
bsbg0
(g1
g2
Ntp142
Rp143
(dp144
g6
g7
sg8
g9
sg10
g0
(g11
g2
Ntp145
Rp146
((lp147
g15
(g16
(dp148
g18
g19
(g20
(I0
tp149
g22
tp150
Rp151
(I1
(L4L
tp152
g29
I00
(lp153
g33
ag34
ag35
ag36
atp154
bsg38
Nstp155
Rp156
ag15
(g16
(dp157
g18
g19
(g20
(I0
tp158
g22
tp159
Rp160
(I1
(L14L
tp161
g29
I00
(lp162
g47
ag48
ag49
ag50
ag51
ag52
ag53
ag54
ag55
ag56
ag57
ag58
ag59
ag60
atp163
bsg38
Nstp164
Rp165
a(lp166
g19
(g20
(I0
tp167
g22
tp168
Rp169
(I1
(L4L
L14L
tp170
g29
I00
(lp171
L21L
aL22L
aL26L
aL39L
aL39L
aL26L
aL25L
aL27L
aL26L
aL26L
aL21L
aL26L
aL26L
aL26L
aL61L
aL57L
aL53L
aL51L
aL35L
aL53L
aL54L
aL47L
aL48L
aL44L
aL57L
aL45L
aL45L
aL44L
aL107L
aL111L
aL115L
aL117L
aL133L
aL115L
aL114L
aL121L
aL120L
aL124L
aL111L
aL123L
aL123L
aL124L
aL61L
aL60L
aL56L
aL43L
aL43L
aL56L
aL57L
aL55L
aL56L
aL56L
aL61L
aL56L
aL56L
aL56L
atp172
ba(lp173
g15
(g16
(dp174
g18
g19
(g20
(I0
tp175
g22
tp176
Rp177
(I1
(L4L
tp178
g29
I00
(lp179
g33
ag34
ag35
ag36
atp180
bsg38
Nstp181
Rp182
a(dp183
g82
(dp184
g84
g147
sg85
(lp185
(dp186
g88
g89
(I0
I4
L1L
tp187
Rp188
sg92
g169
sasstp189
bsbg0
(g1
g2
Ntp190
Rp191
(dp192
g6
g7
sg8
g9
sg10
g0
(g11
g2
Ntp193
Rp194
((lp195
g15
(g16
(dp196
g18
g19
(g20
(I0
tp197
g22
tp198
Rp199
(I1
(L4L
tp200
g29
I00
(lp201
g33
ag34
ag35
ag36
atp202
bsg38
Nstp203
Rp204
ag15
(g16
(dp205
g18
g19
(g20
(I0
tp206
g22
tp207
Rp208
(I1
(L14L
tp209
g29
I00
(lp210
g47
ag48
ag49
ag50
ag51
ag52
ag53
ag54
ag55
ag56
ag57
ag58
ag59
ag60
atp211
bsg38
Nstp212
Rp213
a(lp214
g19
(g20
(I0
tp215
g22
tp216
Rp217
(I1
(L4L
L14L
tp218
g29
I00
(lp219
L41L
aL38L
aL20L
aL54L
aL46L
aL78L
aL82L
aL45L
aL43L
aL43L
aL39L
aL49L
aL49L
aL48L
aL20L
aL22L
aL65L
aL16L
aL24L
aL1L
aL0L
aL20L
aL22L
aL18L
aL23L
aL16L
aL17L
aL18L
aL148L
aL146L
aL103L
aL152L
aL144L
aL167L
aL168L
aL148L
aL146L
aL150L
aL145L
aL152L
aL151L
aL150L
aL41L
aL44L
aL62L
aL28L
aL36L
aL4L
aL0L
aL37L
aL39L
aL39L
aL43L
aL33L
aL33L
aL34L
atp220
ba(lp221
g15
(g16
(dp222
g18
g19
(g20
(I0
tp223
g22
tp224
Rp225
(I1
(L4L
tp226
g29
I00
(lp227
g33
ag34
ag35
ag36
atp228
bsg38
Nstp229
Rp230
a(dp231
g82
(dp232
g84
g195
sg85
(lp233
(dp234
g88
g89
(I0
I4
L1L
tp235
Rp236
sg92
g217
sasstp237
bsbg0
(g1
g2
Ntp238
Rp239
(dp240
g6
g7
sg8
g9
sg10
g0
(g11
g2
Ntp241
Rp242
((lp243
g15
(g16
(dp244
g18
g19
(g20
(I0
tp245
g22
tp246
Rp247
(I1
(L4L
tp248
g29
I00
(lp249
g33
ag34
ag35
ag36
atp250
bsg38
Nstp251
Rp252
ag15
(g16
(dp253
g18
g19
(g20
(I0
tp254
g22
tp255
Rp256
(I1
(L14L
tp257
g29
I00
(lp258
S'SL_l1s_m'
p259
aS'SL_l2s_m'
p260
aS'SL_l2h_m'
p261
aS'SX_po2_m'
p262
aS'SX_po3_m'
p263
aS'SX_rbf_m'
p264
aS'SX_sig_m'
p265
aS'LR_l1s_m'
p266
aS'LR_l1l_m'
p267
aS'LR_l2s_m'
p268
aS'LR_l2l_m'
p269
aS'LR_nwt_m'
p270
aS'LR_lbf_m'
p271
aS'LR_sag_m'
p272
atp273
bsg38
Nstp274
Rp275
a(lp276
g19
(g20
(I0
tp277
g22
tp278
Rp279
(I1
(L4L
L14L
tp280
g29
I00
(lp281
L25L
aL26L
aL28L
aL19L
aL19L
aL23L
aL26L
aL26L
aL26L
aL26L
aL27L
aL26L
aL26L
aL27L
aL48L
aL53L
aL53L
aL72L
aL73L
aL52L
aL51L
aL49L
aL48L
aL51L
aL51L
aL51L
aL51L
aL51L
aL120L
aL115L
aL115L
aL96L
aL95L
aL116L
aL117L
aL119L
aL120L
aL117L
aL117L
aL117L
aL117L
aL117L
aL57L
aL56L
aL54L
aL63L
aL63L
aL59L
aL56L
aL56L
aL56L
aL56L
aL55L
aL56L
aL56L
aL55L
atp282
ba(lp283
g15
(g16
(dp284
g18
g19
(g20
(I0
tp285
g22
tp286
Rp287
(I1
(L4L
tp288
g29
I00
(lp289
g33
ag34
ag35
ag36
atp290
bsg38
Nstp291
Rp292
a(dp293
g82
(dp294
g84
g243
sg85
(lp295
(dp296
g88
g89
(I0
I4
L1L
tp297
Rp298
sg92
g279
sasstp299
bsbg0
(g1
g2
Ntp300
Rp301
(dp302
g6
g7
sg8
g9
sg10
g0
(g11
g2
Ntp303
Rp304
((lp305
g15
(g16
(dp306
g18
g19
(g20
(I0
tp307
g22
tp308
Rp309
(I1
(L4L
tp310
g29
I00
(lp311
g33
ag34
ag35
ag36
atp312
bsg38
Nstp313
Rp314
ag15
(g16
(dp315
g18
g19
(g20
(I0
tp316
g22
tp317
Rp318
(I1
(L14L
tp319
g29
I00
(lp320
g259
ag260
ag261
ag262
ag263
ag264
ag265
ag266
ag267
ag268
ag269
ag270
ag271
ag272
atp321
bsg38
Nstp322
Rp323
a(lp324
g19
(g20
(I0
tp325
g22
tp326
Rp327
(I1
(L4L
L14L
tp328
g29
I00
(lp329
L0L
aL39L
aL40L
aL33L
aL38L
aL42L
aL37L
aL0L
aL0L
aL41L
aL41L
aL41L
aL38L
aL38L
aL168L
aL23L
aL25L
aL34L
aL29L
aL27L
aL26L
aL168L
aL168L
aL24L
aL24L
aL24L
aL24L
aL24L
aL0L
aL145L
aL143L
aL134L
aL139L
aL141L
aL142L
aL0L
aL0L
aL144L
aL144L
aL144L
aL144L
aL144L
aL82L
aL43L
aL42L
aL49L
aL44L
aL40L
aL45L
aL82L
aL82L
aL41L
aL41L
aL41L
aL44L
aL44L
atp330
ba(lp331
g15
(g16
(dp332
g18
g19
(g20
(I0
tp333
g22
tp334
Rp335
(I1
(L4L
tp336
g29
I00
(lp337
g33
ag34
ag35
ag36
atp338
bsg38
Nstp339
Rp340
a(dp341
g82
(dp342
g84
g305
sg85
(lp343
(dp344
g88
g89
(I0
I4
L1L
tp345
Rp346
sg92
g327
sasstp347
bsbg0
(g1
g2
Ntp348
Rp349
(dp350
g6
g7
sg8
g9
sg10
g0
(g11
g2
Ntp351
Rp352
((lp353
g15
(g16
(dp354
g18
g19
(g20
(I0
tp355
g22
tp356
Rp357
(I1
(L4L
tp358
g29
I00
(lp359
g33
ag34
ag35
ag36
atp360
bsg38
Nstp361
Rp362
ag15
(g16
(dp363
g18
g19
(g20
(I0
tp364
g22
tp365
Rp366
(I1
(L14L
tp367
g29
I00
(lp368
g259
ag260
ag261
ag262
ag263
ag264
ag265
ag266
ag267
ag268
ag269
ag270
ag271
ag272
atp369
bsg38
Nstp370
Rp371
a(lp372
g19
(g20
(I0
tp373
g22
tp374
Rp375
(I1
(L4L
L14L
tp376
g29
I00
(lp377
L25L
aL26L
aL27L
aL21L
aL19L
aL23L
aL27L
aL26L
aL27L
aL26L
aL27L
aL26L
aL26L
aL26L
aL49L
aL50L
aL52L
aL57L
aL72L
aL52L
aL54L
aL48L
aL46L
aL51L
aL51L
aL51L
aL51L
aL51L
aL119L
aL118L
aL116L
aL111L
aL96L
aL116L
aL114L
aL120L
aL122L
aL117L
aL117L
aL117L
aL117L
aL117L
aL57L
aL56L
aL55L
aL61L
aL63L
aL59L
aL55L
aL56L
aL55L
aL56L
aL55L
aL56L
aL56L
aL56L
atp378
ba(lp379
g15
(g16
(dp380
g18
g19
(g20
(I0
tp381
g22
tp382
Rp383
(I1
(L4L
tp384
g29
I00
(lp385
g33
ag34
ag35
ag36
atp386
bsg38
Nstp387
Rp388
a(dp389
g82
(dp390
g84
g353
sg85
(lp391
(dp392
g88
g89
(I0
I4
L1L
tp393
Rp394
sg92
g375
sasstp395
bsbg0
(g1
g2
Ntp396
Rp397
(dp398
g6
g7
sg8
g9
sg10
g0
(g11
g2
Ntp399
Rp400
((lp401
g15
(g16
(dp402
g18
g19
(g20
(I0
tp403
g22
tp404
Rp405
(I1
(L4L
tp406
g29
I00
(lp407
g33
ag34
ag35
ag36
atp408
bsg38
Nstp409
Rp410
ag15
(g16
(dp411
g18
g19
(g20
(I0
tp412
g22
tp413
Rp414
(I1
(L14L
tp415
g29
I00
(lp416
g259
ag260
ag261
ag262
ag263
ag264
ag265
ag266
ag267
ag268
ag269
ag270
ag271
ag272
atp417
bsg38
Nstp418
Rp419
a(lp420
g19
(g20
(I0
tp421
g22
tp422
Rp423
(I1
(L4L
L14L
tp424
g29
I00
(lp425
L40L
aL41L
aL35L
aL48L
aL54L
aL40L
aL82L
aL39L
aL39L
aL42L
aL42L
aL42L
aL42L
aL42L
aL22L
aL22L
aL28L
aL25L
aL21L
aL27L
aL0L
aL22L
aL22L
aL18L
aL18L
aL18L
aL18L
aL18L
aL146L
aL146L
aL140L
aL143L
aL147L
aL141L
aL168L
aL146L
aL146L
aL150L
aL150L
aL150L
aL150L
aL150L
aL42L
aL41L
aL47L
aL34L
aL28L
aL42L
aL0L
aL43L
aL43L
aL40L
aL40L
aL40L
aL40L
aL40L
atp426
ba(lp427
g15
(g16
(dp428
g18
g19
(g20
(I0
tp429
g22
tp430
Rp431
(I1
(L4L
tp432
g29
I00
(lp433
g33
ag34
ag35
ag36
atp434
bsg38
Nstp435
Rp436
a(dp437
g82
(dp438
g84
g401
sg85
(lp439
(dp440
g88
g89
(I0
I4
L1L
tp441
Rp442
sg92
g423
sasstp443
bsbg0
(g1
g2
Ntp444
Rp445
(dp446
g6
g7
sg8
g9
sg10
g0
(g11
g2
Ntp447
Rp448
((lp449
g15
(g16
(dp450
g18
g19
(g20
(I0
tp451
g22
tp452
Rp453
(I1
(L4L
tp454
g29
I00
(lp455
g33
ag34
ag35
ag36
atp456
bsg38
Nstp457
Rp458
ag15
(g16
(dp459
g18
g19
(g20
(I0
tp460
g22
tp461
Rp462
(I1
(L12L
tp463
g29
I00
(lp464
S'DT_gin_u'
p465
aS'DT_ent_u'
p466
aS'GB_dev_u'
p467
aS'GB_exp_u'
p468
aS'RB_gin_u'
p469
aS'RB_ent_u'
p470
aS'RX_gin_u'
p471
aS'RX_ent_u'
p472
aS'EB_gin_u'
p473
aS'EB_ent_u'
p474
aS'EX_gin_u'
p475
aS'EX_ent_u'
p476
atp477
bsg38
Nstp478
Rp479
a(lp480
g19
(g20
(I0
tp481
g22
tp482
Rp483
(I1
(L4L
L12L
tp484
g29
I00
(lp485
L18L
aL18L
aL46L
aL82L
aL26L
aL29L
aL28L
aL24L
aL23L
aL18L
aL23L
aL18L
aL80L
aL80L
aL38L
aL0L
aL50L
aL53L
aL61L
aL57L
aL58L
aL71L
aL58L
aL71L
aL88L
aL88L
aL130L
aL168L
aL118L
aL115L
aL107L
aL111L
aL110L
aL97L
aL110L
aL97L
aL64L
aL64L
aL36L
aL0L
aL56L
aL53L
aL54L
aL58L
aL59L
aL64L
aL59L
aL64L
atp486
ba(lp487
g15
(g16
(dp488
g18
g19
(g20
(I0
tp489
g22
tp490
Rp491
(I1
(L4L
tp492
g29
I00
(lp493
g33
ag34
ag35
ag36
atp494
bsg38
Nstp495
Rp496
a(dp497
g82
(dp498
g84
g449
sg85
(lp499
(dp500
g88
g89
(I0
I4
L1L
tp501
Rp502
sg92
g483
sasstp503
bsbg0
(g1
g2
Ntp504
Rp505
(dp506
g6
g7
sg8
g9
sg10
g0
(g11
g2
Ntp507
Rp508
((lp509
g15
(g16
(dp510
g18
g19
(g20
(I0
tp511
g22
tp512
Rp513
(I1
(L4L
tp514
g29
I00
(lp515
g33
ag34
ag35
ag36
atp516
bsg38
Nstp517
Rp518
ag15
(g16
(dp519
g18
g19
(g20
(I0
tp520
g22
tp521
Rp522
(I1
(L12L
tp523
g29
I00
(lp524
g465
ag466
ag467
ag468
ag469
ag470
ag471
ag472
ag473
ag474
ag475
ag476
atp525
bsg38
Nstp526
Rp527
a(lp528
g19
(g20
(I0
tp529
g22
tp530
Rp531
(I1
(L4L
L12L
tp532
g29
I00
(lp533
L44L
aL44L
aL46L
aL44L
aL61L
aL52L
aL56L
aL51L
aL50L
aL50L
aL50L
aL50L
aL41L
aL41L
aL19L
aL22L
aL10L
aL19L
aL11L
aL26L
aL36L
aL36L
aL36L
aL36L
aL127L
aL127L
aL149L
aL146L
aL158L
aL149L
aL157L
aL142L
aL132L
aL132L
aL132L
aL132L
aL38L
aL38L
aL36L
aL38L
aL21L
aL30L
aL26L
aL31L
aL32L
aL32L
aL32L
aL32L
atp534
ba(lp535
g15
(g16
(dp536
g18
g19
(g20
(I0
tp537
g22
tp538
Rp539
(I1
(L4L
tp540
g29
I00
(lp541
g33
ag34
ag35
ag36
atp542
bsg38
Nstp543
Rp544
a(dp545
g82
(dp546
g84
g509
sg85
(lp547
(dp548
g88
g89
(I0
I4
L1L
tp549
Rp550
sg92
g531
sasstp551
bsbg0
(g1
g2
Ntp552
Rp553
(dp554
g6
g7
sg8
g9
sg10
g0
(g11
g2
Ntp555
Rp556
((lp557
g15
(g16
(dp558
g18
g19
(g20
(I0
tp559
g22
tp560
Rp561
(I1
(L4L
tp562
g29
I00
(lp563
g33
ag34
ag35
ag36
atp564
bsg38
Nstp565
Rp566
ag15
(g16
(dp567
g18
g19
(g20
(I0
tp568
g22
tp569
Rp570
(I1
(L12L
tp571
g29
I00
(lp572
g465
ag466
ag467
ag468
ag469
ag470
ag471
ag472
ag473
ag474
ag475
ag476
atp573
bsg38
Nstp574
Rp575
a(lp576
g19
(g20
(I0
tp577
g22
tp578
Rp579
(I1
(L4L
L12L
tp580
g29
I00
(lp581
L31L
aL18L
aL44L
aL46L
aL28L
aL25L
aL24L
aL27L
aL22L
aL25L
aL22L
aL25L
aL64L
aL80L
aL18L
aL18L
aL60L
aL63L
aL60L
aL56L
aL58L
aL55L
aL58L
aL55L
aL104L
aL88L
aL150L
aL150L
aL108L
aL105L
aL108L
aL112L
aL110L
aL113L
aL110L
aL113L
aL51L
aL64L
aL38L
aL36L
aL54L
aL57L
aL58L
aL55L
aL60L
aL57L
aL60L
aL57L
atp582
ba(lp583
g15
(g16
(dp584
g18
g19
(g20
(I0
tp585
g22
tp586
Rp587
(I1
(L4L
tp588
g29
I00
(lp589
g33
ag34
ag35
ag36
atp590
bsg38
Nstp591
Rp592
a(dp593
g82
(dp594
g84
g557
sg85
(lp595
(dp596
g88
g89
(I0
I4
L1L
tp597
Rp598
sg92
g579
sasstp599
bsbg0
(g1
g2
Ntp600
Rp601
(dp602
g6
g7
sg8
g9
sg10
g0
(g11
g2
Ntp603
Rp604
((lp605
g15
(g16
(dp606
g18
g19
(g20
(I0
tp607
g22
tp608
Rp609
(I1
(L4L
tp610
g29
I00
(lp611
g33
ag34
ag35
ag36
atp612
bsg38
Nstp613
Rp614
ag15
(g16
(dp615
g18
g19
(g20
(I0
tp616
g22
tp617
Rp618
(I1
(L12L
tp619
g29
I00
(lp620
g465
ag466
ag467
ag468
ag469
ag470
ag471
ag472
ag473
ag474
ag475
ag476
atp621
bsg38
Nstp622
Rp623
a(lp624
g19
(g20
(I0
tp625
g22
tp626
Rp627
(I1
(L4L
L12L
tp628
g29
I00
(lp629
L49L
aL49L
aL48L
aL51L
aL82L
aL78L
aL51L
aL67L
aL56L
aL82L
aL56L
aL82L
aL33L
aL33L
aL14L
aL16L
aL0L
aL2L
aL14L
aL6L
aL10L
aL0L
aL10L
aL0L
aL135L
aL135L
aL154L
aL152L
aL168L
aL166L
aL154L
aL162L
aL158L
aL168L
aL158L
aL168L
aL33L
aL33L
aL34L
aL31L
aL0L
aL4L
aL31L
aL15L
aL26L
aL0L
aL26L
aL0L
atp630
ba(lp631
g15
(g16
(dp632
g18
g19
(g20
(I0
tp633
g22
tp634
Rp635
(I1
(L4L
tp636
g29
I00
(lp637
g33
ag34
ag35
ag36
atp638
bsg38
Nstp639
Rp640
a(dp641
g82
(dp642
g84
g605
sg85
(lp643
(dp644
g88
g89
(I0
I4
L1L
tp645
Rp646
sg92
g627
sasstp647
bsbtp648
.