(S'bal_n_cus'
p0
S'imb_n_cus'
p1
S'bal_n_roc'
p2
S'imb_n_roc'
p3
S'bal_m_cus'
p4
S'imb_m_cus'
p5
S'bal_m_roc'
p6
S'imb_m_roc'
p7
S'bal_u_cus'
p8
S'imb_u_cus'
p9
S'bal_u_roc'
p10
S'imb_u_roc'
p11
tp12
.